; Function Attrs: nounwind uwtable
define noundef nonnull ptr @Dau_DsdPerform(i64 noundef %0) local_unnamed_addr #3 {
  %2 = alloca [12 x i32], align 16
  switch i64 %0, label %5 [
    i64 0, label %3
    i64 -1, label %4
  ]

3:                                                ; preds = %1
  store i8 48, ptr @Dau_DsdPerform.pBuffer, align 16, !tbaa !3
  br label %8

4:                                                ; preds = %1
  store i8 49, ptr @Dau_DsdPerform.pBuffer, align 16, !tbaa !3
  br label %8

5:                                                ; preds = %1
  %6 = tail call i32 @Dau_DsdPerform_rec(i64 noundef %0, ptr noundef nonnull @Dau_DsdPerform.pBuffer, i32 noundef 0, ptr noundef nonnull @__const.Dau_DsdPerform.pVarsNew, i32 noundef 6)
  %7 = sext i32 %6 to i64
  br label %8

8:                                                ; preds = %4, %5, %3
  %.0 = phi i64 [ 1, %3 ], [ 1, %4 ], [ %7, %5 ]
  %9 = getelementptr inbounds [2000 x i8], ptr @Dau_DsdPerform.pBuffer, i64 0, i64 %.0
  store i8 0, ptr %9, align 1, !tbaa !3
  call void @llvm.lifetime.start.p0(i64 48, ptr nonnull %2) #29
  %10 = load i8, ptr @Dau_DsdPerform.pBuffer, align 16, !tbaa !3
  %.not25.i = icmp eq i8 %10, 0
  br i1 %.not25.i, label %Dau_DsdComputeMatches.exit, label %.lr.ph.i

.lr.ph.i:                                         ; preds = %8, %26
  %11 = phi i8 [ %28, %26 ], [ %10, %8 ]
  %indvars.iv.i = phi i64 [ %indvars.iv.next.i, %26 ], [ 0, %8 ]
  %.027.i = phi i32 [ %.1.i, %26 ], [ 0, %8 ]
  %12 = getelementptr inbounds nuw [2000 x i32], ptr @Dau_DsdComputeMatches.pMatches, i64 0, i64 %indvars.iv.i
  store i32 0, ptr %12, align 4, !tbaa !6
  switch i8 %11, label %26 [
    i8 40, label %13
    i8 91, label %13
    i8 60, label %13
    i8 123, label %13
    i8 41, label %18
    i8 93, label %18
    i8 62, label %18
    i8 125, label %18
  ]

13:                                               ; preds = %.lr.ph.i, %.lr.ph.i, %.lr.ph.i, %.lr.ph.i
  %14 = add nsw i32 %.027.i, 1
  %15 = sext i32 %.027.i to i64
  %16 = getelementptr inbounds [12 x i32], ptr %2, i64 0, i64 %15
  %17 = trunc nuw nsw i64 %indvars.iv.i to i32
  store i32 %17, ptr %16, align 4, !tbaa !6
  br label %26

18:                                               ; preds = %.lr.ph.i, %.lr.ph.i, %.lr.ph.i, %.lr.ph.i
  %19 = add nsw i32 %.027.i, -1
  %20 = sext i32 %19 to i64
  %21 = getelementptr inbounds [12 x i32], ptr %2, i64 0, i64 %20
  %22 = load i32, ptr %21, align 4, !tbaa !6
  %23 = sext i32 %22 to i64
  %24 = getelementptr inbounds [2000 x i32], ptr @Dau_DsdComputeMatches.pMatches, i64 0, i64 %23
  %25 = trunc nuw nsw i64 %indvars.iv.i to i32
  store i32 %25, ptr %24, align 4, !tbaa !6
  br label %26

26:                                               ; preds = %18, %13, %.lr.ph.i
  %.1.i = phi i32 [ %14, %13 ], [ %19, %18 ], [ %.027.i, %.lr.ph.i ]
  %indvars.iv.next.i = add nuw nsw i64 %indvars.iv.i, 1
  %27 = getelementptr inbounds nuw i8, ptr @Dau_DsdPerform.pBuffer, i64 %indvars.iv.next.i
  %28 = load i8, ptr %27, align 1, !tbaa !3
  %.not.i = icmp eq i8 %28, 0
  br i1 %.not.i, label %Dau_DsdComputeMatches.exit, label %.lr.ph.i, !llvm.loop !8

Dau_DsdComputeMatches.exit:                       ; preds = %26, %8
  call void @llvm.lifetime.end.p0(i64 48, ptr nonnull %2) #29
  tail call void @Dau_DsdRemoveBraces(ptr noundef nonnull @Dau_DsdPerform.pBuffer, ptr noundef nonnull @Dau_DsdComputeMatches.pMatches) #29
  ret ptr @Dau_DsdPerform.pBuffer
}